target datalayout = "e-m:e-p270:32:32-p271:32:32-p272:64:64-i64:64-i128:128-f80:128-n8:16:32:64-S128"
target triple = "x86_64-pc-linux-gnu"

%struct.WindowClause = type { i32, ptr, ptr, ptr, ptr, i32, ptr, ptr, i32, i32, i32, i8, i8, i32, i8 }

@.str.1 = private unnamed_addr constant [10 x i8] c"planner.c\00", align 1
@.str.7 = private unnamed_addr constant [40 x i8] c"could not implement window PARTITION BY\00", align 1
@.str.8 = private unnamed_addr constant [59 x i8] c"Window partitioning columns must be of sortable datatypes.\00", align 1
@__func__.make_pathkeys_for_window = private unnamed_addr constant [25 x i8] c"make_pathkeys_for_window\00", align 1
@.str.9 = private unnamed_addr constant [36 x i8] c"could not implement window ORDER BY\00", align 1
@.str.10 = private unnamed_addr constant [55 x i8] c"Window ordering columns must be of sortable datatypes.\00", align 1

; Function Attrs: nounwind uwtable
define internal ptr @make_pathkeys_for_window(ptr noundef %0, ptr noundef %1, ptr noundef %2) #0 {
  %4 = alloca ptr, align 8
  %5 = alloca ptr, align 8
  %6 = alloca ptr, align 8
  %7 = alloca ptr, align 8
  %8 = alloca i8, align 1
  %9 = alloca ptr, align 8
  store ptr %0, ptr %4, align 8
  store ptr %1, ptr %5, align 8
  store ptr %2, ptr %6, align 8
  call void @llvm.lifetime.start.p0(i64 8, ptr %7) #8
  store ptr null, ptr %7, align 8
  %10 = load ptr, ptr %5, align 8
  %11 = getelementptr inbounds nuw %struct.WindowClause, ptr %10, i32 0, i32 3
  %12 = load ptr, ptr %11, align 8
  %13 = call zeroext i1 @grouping_is_sortable(ptr noundef %12)
  br i1 %13, label %27, label %14

14:                                               ; preds = %3
  br label %15

15:                                               ; preds = %14
  br i1 true, label %16, label %18

16:                                               ; preds = %15
  %17 = call zeroext i1 @errstart_cold(i32 noundef 21, ptr noundef null) #9
  br i1 %17, label %20, label %24

18:                                               ; preds = %15
  %19 = call zeroext i1 @errstart(i32 noundef 21, ptr noundef null)
  br i1 %19, label %20, label %24

20:                                               ; preds = %18, %16
  %21 = call i32 @errcode(i32 noundef 1088)
  %22 = call i32 (ptr, ...) @errmsg(ptr noundef @.str.7)
  %23 = call i32 (ptr, ...) @errdetail(ptr noundef @.str.8)
  call void @errfinish(ptr noundef @.str.1, i32 noundef 6125, ptr noundef @__func__.make_pathkeys_for_window)
  br label %24

24:                                               ; preds = %20, %18, %16
  unreachable

25:                                               ; No predecessors!
  br label %26

26:                                               ; preds = %25
  br label %27

27:                                               ; preds = %26, %3
  %28 = load ptr, ptr %5, align 8
  %29 = getelementptr inbounds nuw %struct.WindowClause, ptr %28, i32 0, i32 4
  %30 = load ptr, ptr %29, align 8
  %31 = call zeroext i1 @grouping_is_sortable(ptr noundef %30)
  br i1 %31, label %45, label %32

32:                                               ; preds = %27
  br label %33

33:                                               ; preds = %32
  br i1 true, label %34, label %36

34:                                               ; preds = %33
  %35 = call zeroext i1 @errstart_cold(i32 noundef 21, ptr noundef null) #9
  br i1 %35, label %38, label %42

36:                                               ; preds = %33
  %37 = call zeroext i1 @errstart(i32 noundef 21, ptr noundef null)
  br i1 %37, label %38, label %42

38:                                               ; preds = %36, %34
  %39 = call i32 @errcode(i32 noundef 1088)
  %40 = call i32 (ptr, ...) @errmsg(ptr noundef @.str.9)
  %41 = call i32 (ptr, ...) @errdetail(ptr noundef @.str.10)
  call void @errfinish(ptr noundef @.str.1, i32 noundef 6130, ptr noundef @__func__.make_pathkeys_for_window)
  br label %42

42:                                               ; preds = %38, %36, %34
  unreachable

43:                                               ; No predecessors!
  br label %44

44:                                               ; preds = %43
  br label %45

45:                                               ; preds = %44, %27
  %46 = load ptr, ptr %5, align 8
  %47 = getelementptr inbounds nuw %struct.WindowClause, ptr %46, i32 0, i32 3
  %48 = load ptr, ptr %47, align 8
  %49 = icmp ne ptr %48, null
  br i1 %49, label %50, label %56

50:                                               ; preds = %45
  call void @llvm.lifetime.start.p0(i64 1, ptr %8) #8
  %51 = load ptr, ptr %4, align 8
  %52 = load ptr, ptr %5, align 8
  %53 = getelementptr inbounds nuw %struct.WindowClause, ptr %52, i32 0, i32 3
  %54 = load ptr, ptr %6, align 8
  %55 = call ptr @make_pathkeys_for_sortclauses_extended(ptr noundef %51, ptr noundef %53, ptr noundef %54, i1 noundef zeroext true, i1 noundef zeroext false, ptr noundef %8, i1 noundef zeroext false)
  store ptr %55, ptr %7, align 8
  call void @llvm.lifetime.end.p0(i64 1, ptr %8) #8
  br label %56

56:                                               ; preds = %50, %45
  %57 = load ptr, ptr %5, align 8
  %58 = getelementptr inbounds nuw %struct.WindowClause, ptr %57, i32 0, i32 4
  %59 = load ptr, ptr %58, align 8
  %60 = icmp ne ptr %59, null
  br i1 %60, label %61, label %77

61:                                               ; preds = %56
  call void @llvm.lifetime.start.p0(i64 8, ptr %9) #8
  %62 = load ptr, ptr %4, align 8
  %63 = load ptr, ptr %5, align 8
  %64 = getelementptr inbounds nuw %struct.WindowClause, ptr %63, i32 0, i32 4
  %65 = load ptr, ptr %64, align 8
  %66 = load ptr, ptr %6, align 8
  %67 = call ptr @make_pathkeys_for_sortclauses(ptr noundef %62, ptr noundef %65, ptr noundef %66)
  store ptr %67, ptr %9, align 8
  %68 = load ptr, ptr %7, align 8
  %69 = icmp ne ptr %68, null
  br i1 %69, label %70, label %74

70:                                               ; preds = %61
  %71 = load ptr, ptr %7, align 8
  %72 = load ptr, ptr %9, align 8
  %73 = call ptr @append_pathkeys(ptr noundef %71, ptr noundef %72)
  store ptr %73, ptr %7, align 8
  br label %76

74:                                               ; preds = %61
  %75 = load ptr, ptr %9, align 8
  store ptr %75, ptr %7, align 8
  br label %76

76:                                               ; preds = %74, %70
  call void @llvm.lifetime.end.p0(i64 8, ptr %9) #8
  br label %77

77:                                               ; preds = %76, %56
  %78 = load ptr, ptr %7, align 8
  call void @llvm.lifetime.end.p0(i64 8, ptr %7) #8
  ret ptr %78
}