; Function Attrs: nounwind uwtable
define internal fastcc ptr @make_pathkeys_for_window(ptr noundef %0, ptr noundef %1, ptr noundef %2) unnamed_addr #0 {
  %4 = alloca i8, align 1
  %5 = getelementptr inbounds nuw i8, ptr %1, i64 24
  %6 = load ptr, ptr %5, align 8
  %7 = tail call zeroext i1 @grouping_is_sortable(ptr noundef %6) #12
  br i1 %7, label %13, label %8

8:                                                ; preds = %3
  %9 = tail call zeroext i1 @errstart_cold(i32 noundef 21, ptr noundef null) #13
  tail call void @llvm.assume(i1 %9)
  %10 = tail call i32 @errcode(i32 noundef 1088) #12
  %11 = tail call i32 (ptr, ...) @errmsg(ptr noundef nonnull @.str.7) #12
  %12 = tail call i32 (ptr, ...) @errdetail(ptr noundef nonnull @.str.8) #12
  tail call void @errfinish(ptr noundef nonnull @.str.1, i32 noundef 6125, ptr noundef nonnull @__func__.make_pathkeys_for_window) #12
  unreachable

13:                                               ; preds = %3
  %14 = getelementptr inbounds nuw i8, ptr %1, i64 32
  %15 = load ptr, ptr %14, align 8
  %16 = tail call zeroext i1 @grouping_is_sortable(ptr noundef %15) #12
  br i1 %16, label %22, label %17

17:                                               ; preds = %13
  %18 = tail call zeroext i1 @errstart_cold(i32 noundef 21, ptr noundef null) #13
  tail call void @llvm.assume(i1 %18)
  %19 = tail call i32 @errcode(i32 noundef 1088) #12
  %20 = tail call i32 (ptr, ...) @errmsg(ptr noundef nonnull @.str.9) #12
  %21 = tail call i32 (ptr, ...) @errdetail(ptr noundef nonnull @.str.10) #12
  tail call void @errfinish(ptr noundef nonnull @.str.1, i32 noundef 6130, ptr noundef nonnull @__func__.make_pathkeys_for_window) #12
  unreachable

22:                                               ; preds = %13
  %23 = load ptr, ptr %5, align 8
  %.not = icmp eq ptr %23, null
  br i1 %.not, label %26, label %24

24:                                               ; preds = %22
  call void @llvm.lifetime.start.p0(i64 1, ptr nonnull %4) #12
  %25 = call ptr @make_pathkeys_for_sortclauses_extended(ptr noundef %0, ptr noundef nonnull %5, ptr noundef %2, i1 noundef zeroext true, i1 noundef zeroext false, ptr noundef nonnull %4, i1 noundef zeroext false) #12
  call void @llvm.lifetime.end.p0(i64 1, ptr nonnull %4) #12
  br label %26

26:                                               ; preds = %24, %22
  %.0 = phi ptr [ %25, %24 ], [ null, %22 ]
  %27 = load ptr, ptr %14, align 8
  %.not16 = icmp eq ptr %27, null
  br i1 %.not16, label %32, label %28

28:                                               ; preds = %26
  %29 = call ptr @make_pathkeys_for_sortclauses(ptr noundef %0, ptr noundef nonnull %27, ptr noundef %2) #12
  %.not17 = icmp eq ptr %.0, null
  br i1 %.not17, label %32, label %30

30:                                               ; preds = %28
  %31 = call ptr @append_pathkeys(ptr noundef nonnull %.0, ptr noundef %29) #12
  br label %32

32:                                               ; preds = %30, %28, %26
  %.1 = phi ptr [ %.0, %26 ], [ %31, %30 ], [ %29, %28 ]
  ret ptr %.1
}